; Function Attrs: mustprogress uwtable
define hidden void @_ZN3nla6basics31generate_strict_case_zero_lemmaERKNS_5monicEji(ptr noundef nonnull align 8 dereferenceable(184) %this, ptr nocapture noundef nonnull readonly align 8 dereferenceable(34) %m, i32 noundef %zero_j, i32 noundef %sign_of_zj) local_unnamed_addr #3 align 2 personality ptr @__gxx_personality_v0 {
entry:
  %lemma = alloca %"class.nla::new_lemma", align 8
  %ref.tmp = alloca %"class.nla::ineq", align 8
  %0 = load ptr, ptr %this, align 8
  call void @_ZN3nla9new_lemmaC1ERNS_4coreEPKc(ptr noundef nonnull align 8 dereferenceable(16) %lemma, ptr noundef nonnull align 8 dereferenceable(4720) %0, ptr noundef nonnull @.str.5)
  %cmp = icmp eq i32 %sign_of_zj, 1
  %cond = select i1 %cmp, i32 1, i32 -1
  invoke void @_ZN3nla4ineqC2EjN2lp16lconstraint_kindEi(ptr noundef nonnull align 8 dereferenceable(64) %ref.tmp, i32 noundef %zero_j, i32 noundef %cond, i32 noundef 0)
          to label %invoke.cont unwind label %lpad.loopexit.split-lp

invoke.cont:                                      ; preds = %entry
  %call4 = invoke noundef nonnull align 8 dereferenceable(16) ptr @_ZN3nla9new_lemmaoRERKNS_4ineqE(ptr noundef nonnull align 8 dereferenceable(16) %lemma, ptr noundef nonnull align 8 dereferenceable(64) %ref.tmp)
          to label %invoke.cont3 unwind label %lpad2

invoke.cont3:                                     ; preds = %invoke.cont
  call void @_ZN3nla4ineqD2Ev(ptr noundef nonnull align 8 dereferenceable(64) %ref.tmp) #17
  %m_vs.i = getelementptr inbounds i8, ptr %m, i64 8
  %1 = load ptr, ptr %m_vs.i, align 8
  %cmp.i.i = icmp eq ptr %1, null
  br i1 %cmp.i.i, label %for.end, label %_ZNK6vectorIjLb0EjE3endEv.exit

_ZNK6vectorIjLb0EjE3endEv.exit:                   ; preds = %invoke.cont3
  %arrayidx.i.i = getelementptr inbounds i8, ptr %1, i64 -4
  %2 = load i32, ptr %arrayidx.i.i, align 4
  %3 = zext i32 %2 to i64
  %add.ptr.i = getelementptr inbounds i32, ptr %1, i64 %3
  %cmp11.not10 = icmp eq i32 %2, 0
  br i1 %cmp11.not10, label %for.end, label %for.body

for.body:                                         ; preds = %_ZNK6vectorIjLb0EjE3endEv.exit, %for.inc
  %__begin1.011 = phi ptr [ %incdec.ptr, %for.inc ], [ %1, %_ZNK6vectorIjLb0EjE3endEv.exit ]
  %4 = load i32, ptr %__begin1.011, align 4
  %cmp12.not = icmp eq i32 %4, %zero_j
  br i1 %cmp12.not, label %for.inc, label %if.then

if.then:                                          ; preds = %for.body
  invoke void @_ZN3nla6basics18negate_strict_signERNS_9new_lemmaEj(ptr noundef nonnull align 8 dereferenceable(184) %this, ptr noundef nonnull align 8 dereferenceable(16) %lemma, i32 noundef %4)
          to label %for.inc unwind label %lpad.loopexit

lpad.loopexit:                                    ; preds = %if.then
  %lpad.loopexit8 = landingpad { ptr, i32 }
          cleanup
  br label %ehcleanup

lpad.loopexit.split-lp:                           ; preds = %entry, %for.end
  %lpad.loopexit.split-lp9 = landingpad { ptr, i32 }
          cleanup
  br label %ehcleanup

lpad2:                                            ; preds = %invoke.cont
  %5 = landingpad { ptr, i32 }
          cleanup
  call void @_ZN3nla4ineqD2Ev(ptr noundef nonnull align 8 dereferenceable(64) %ref.tmp) #17
  br label %ehcleanup

for.inc:                                          ; preds = %for.body, %if.then
  %incdec.ptr = getelementptr inbounds i8, ptr %__begin1.011, i64 4
  %cmp11.not = icmp eq ptr %incdec.ptr, %add.ptr.i
  br i1 %cmp11.not, label %for.end, label %for.body

for.end:                                          ; preds = %for.inc, %invoke.cont3, %_ZNK6vectorIjLb0EjE3endEv.exit
  %6 = load i32, ptr %m, align 8
  invoke void @_ZN3nla6basics18negate_strict_signERNS_9new_lemmaEj(ptr noundef nonnull align 8 dereferenceable(184) %this, ptr noundef nonnull align 8 dereferenceable(16) %lemma, i32 noundef %6)
          to label %invoke.cont16 unwind label %lpad.loopexit.split-lp

invoke.cont16:                                    ; preds = %for.end
  call void @_ZN3nla9new_lemmaD1Ev(ptr noundef nonnull align 8 dereferenceable(16) %lemma) #17
  ret void

ehcleanup:                                        ; preds = %lpad.loopexit, %lpad.loopexit.split-lp, %lpad2
  %.pn = phi { ptr, i32 } [ %5, %lpad2 ], [ %lpad.loopexit8, %lpad.loopexit ], [ %lpad.loopexit.split-lp9, %lpad.loopexit.split-lp ]
  call void @_ZN3nla9new_lemmaD1Ev(ptr noundef nonnull align 8 dereferenceable(16) %lemma) #17
  resume { ptr, i32 } %.pn
}